target datalayout = "e-m:e-p270:32:32-p271:32:32-p272:64:64-i64:64-i128:128-f80:128-n8:16:32:64-S128"
target triple = "x86_64-pc-linux-gnu"

%class.TypeOrigin = type { i32, i32, ptr, %class.VerificationType }
%class.VerificationType = type { %union.anon.3 }
%union.anon.3 = type { ptr }
%class.StackMapFrame = type { i32, i32, i32, i32, i16, i16, i8, ptr, ptr, ptr }

; Function Attrs: mustprogress nounwind uwtable
define linkonce_odr hidden noundef ptr @_ZN11ResourceObjnwEm(i64 noundef %0) #1 comdat align 2 {
  %2 = alloca i64, align 8
  store i64 %0, ptr %2, align 8
  %3 = load i64, ptr %2, align 8
  %4 = call noundef ptr @_Z23resource_allocate_bytesmN17AllocFailStrategy13AllocFailEnumE(i64 noundef %3, i32 noundef 0)
  ret ptr %4
}

; Function Attrs: mustprogress nounwind uwtable
define linkonce_odr hidden void @_ZN10TypeOriginC2ENS_6OriginEiP13StackMapFrame16VerificationType(ptr noundef nonnull align 8 dereferenceable(24) %0, i32 noundef %1, i32 noundef %2, ptr noundef %3, ptr %4) unnamed_addr #1 comdat align 2 {
  %6 = alloca %class.VerificationType, align 8
  %7 = alloca ptr, align 8
  %8 = alloca i32, align 4
  %9 = alloca i32, align 4
  %10 = alloca ptr, align 8
  %11 = getelementptr inbounds %class.VerificationType, ptr %6, i32 0, i32 0
  %12 = getelementptr inbounds %union.anon.3, ptr %11, i32 0, i32 0
  store ptr %4, ptr %12, align 8
  store ptr %0, ptr %7, align 8
  store i32 %1, ptr %8, align 4
  store i32 %2, ptr %9, align 4
  store ptr %3, ptr %10, align 8
  %13 = load ptr, ptr %7, align 8
  %14 = getelementptr inbounds %class.TypeOrigin, ptr %13, i32 0, i32 0
  %15 = load i32, ptr %8, align 4
  store i32 %15, ptr %14, align 8
  %16 = getelementptr inbounds %class.TypeOrigin, ptr %13, i32 0, i32 1
  %17 = load i32, ptr %9, align 4
  store i32 %17, ptr %16, align 4
  %18 = getelementptr inbounds %class.TypeOrigin, ptr %13, i32 0, i32 2
  %19 = load ptr, ptr %10, align 8
  store ptr %19, ptr %18, align 8
  %20 = getelementptr inbounds %class.TypeOrigin, ptr %13, i32 0, i32 3
  call void @llvm.memcpy.p0.p0.i64(ptr align 8 %20, ptr align 8 %6, i64 8, i1 false)
  ret void
}

; Function Attrs: mustprogress nounwind uwtable
define linkonce_odr hidden ptr @_ZN13StackMapFrame8local_atEi(ptr noundef nonnull align 8 dereferenceable(48) %0, i32 noundef %1) #1 comdat align 2 {
  %3 = alloca %class.VerificationType, align 8
  %4 = alloca ptr, align 8
  %5 = alloca i32, align 4
  store ptr %0, ptr %4, align 8
  store i32 %1, ptr %5, align 4
  %6 = load ptr, ptr %4, align 8
  %7 = getelementptr inbounds %class.StackMapFrame, ptr %6, i32 0, i32 7
  %8 = load ptr, ptr %7, align 8
  %9 = load i32, ptr %5, align 4
  %10 = sext i32 %9 to i64
  %11 = getelementptr inbounds %class.VerificationType, ptr %8, i64 %10
  call void @llvm.memcpy.p0.p0.i64(ptr align 8 %3, ptr align 8 %11, i64 8, i1 false)
  %12 = getelementptr inbounds %class.VerificationType, ptr %3, i32 0, i32 0
  %13 = getelementptr inbounds %union.anon.3, ptr %12, i32 0, i32 0
  %14 = load ptr, ptr %13, align 8
  ret ptr %14
}

; Function Attrs: mustprogress nounwind uwtable
define linkonce_odr hidden noundef ptr @_ZN13StackMapFrame4copyEPS_(ptr noundef %0) #1 comdat align 2 {
  %2 = alloca ptr, align 8
  store ptr %0, ptr %2, align 8
  %3 = call noundef ptr @_ZN11ResourceObjnwEm(i64 noundef 48)
  %4 = load ptr, ptr %2, align 8
  call void @_ZN13StackMapFrameC2ERKS_(ptr noundef nonnull align 8 dereferenceable(48) %3, ptr noundef nonnull align 8 dereferenceable(48) %4)
  ret ptr %3
}

; Function Attrs: mustprogress nounwind uwtable
define hidden void @_ZN10TypeOrigin8sm_localEiP13StackMapFrame(ptr dead_on_unwind noalias writable sret(%class.TypeOrigin) align 8 %0, i32 noundef %1, ptr noundef %2) #1 align 2 {
  %4 = alloca i32, align 4
  %5 = alloca ptr, align 8
  %6 = alloca %class.VerificationType, align 8
  store i32 %1, ptr %4, align 4
  store ptr %2, ptr %5, align 8
  %7 = load i32, ptr %4, align 4
  %8 = load ptr, ptr %5, align 8
  %9 = call noundef ptr @_ZN13StackMapFrame4copyEPS_(ptr noundef %8)
  %10 = load ptr, ptr %5, align 8
  %11 = load i32, ptr %4, align 4
  %12 = call ptr @_ZN13StackMapFrame8local_atEi(ptr noundef nonnull align 8 dereferenceable(48) %10, i32 noundef %11)
  %13 = getelementptr inbounds %class.VerificationType, ptr %6, i32 0, i32 0
  %14 = getelementptr inbounds %union.anon.3, ptr %13, i32 0, i32 0
  store ptr %12, ptr %14, align 8
  %15 = getelementptr inbounds %class.VerificationType, ptr %6, i32 0, i32 0
  %16 = getelementptr inbounds %union.anon.3, ptr %15, i32 0, i32 0
  %17 = load ptr, ptr %16, align 8
  call void @_ZN10TypeOriginC2ENS_6OriginEiP13StackMapFrame16VerificationType(ptr noundef nonnull align 8 dereferenceable(24) %0, i32 noundef 2, i32 noundef %7, ptr noundef %9, ptr %17)
  ret void
}